GAS LISTING C:\Users\ASE-Lab\AppData\Local\Temp\ccMRiF6v.s 			page 1


   1              		.file	"adc.c"
   2              		.section	".text","axv"
   3              	.Ltext0:
   4              		.cfi_sections	.debug_frame
   5              		.section	.text.ADC0_Init,"axv",@progbits
   6              		.align 1
   7              		.p2align 4,,15
   8              		.globl ADC0_Init
   9              		.type	ADC0_Init, @function
  10              	ADC0_Init:
  11              	.LFB4:
  12              		.file 1 "./source/adc.c"
  13              		.loc 1 5 0
  14              		.cfi_startproc
  15 0000 182106F8 		e_stwu %r1,-8(%r1)
  16              	.LCFI0:
  17              		.cfi_def_cfa_offset 8
  18 0004 0080     		se_mflr %r0
  19              		.loc 1 7 0
  20 0006 4914     		se_li %r4,17
  21              		.loc 1 5 0
  22 0008 D301     		se_stw %r0,12(%r1)
  23              		.cfi_offset 65, 4
  24              		.loc 1 7 0
  25 000a 4A03     		se_li %r3,32
  26 000c 78000001 		e_bl SPCSetPeripheralClockMode
  27              	.LVL0:
  28              		.loc 1 9 0
  29 0010 70FFE7E0 		e_lis %r7,0xffe0
  30              		.loc 1 11 0
  31 0014 4816     		se_li %r6,1
  32              		.loc 1 9 0
  33 0016 C057     		se_lwz %r5,0(%r7)
  34 0018 4804     		se_li %r4,0
  35 001a 748507FE 		e_rlwimi %r5,%r4,0,31,31
  36 001e D057     		se_stw %r5,0(%r7)
  37              		.loc 1 11 0
  38 0020 C057     		se_lwz %r5,0(%r7)
  39 0022 74C5E884 		e_rlwimi %r5,%r6,29,2,2
  40 0026 D057     		se_stw %r5,0(%r7)
  41              		.loc 1 13 0
  42 0028 C057     		se_lwz %r5,0(%r7)
  43 002a 74C5F800 		e_rlwimi %r5,%r6,31,0,0
  44 002e D057     		se_stw %r5,0(%r7)
  45              		.loc 1 15 0
  46 0030 50A700A4 		e_lwz %r5,164(%r7)
  47 0034 74C52EB4 		e_rlwimi %r5,%r6,5,26,26
  48 0038 54A700A4 		e_stw %r5,164(%r7)
  49              		.loc 1 17 0
  50 003c C057     		se_lwz %r5,0(%r7)
  51 003e 74C5C1CE 		e_rlwimi %r5,%r6,24,7,7
  52 0042 D057     		se_stw %r5,0(%r7)
  53              		.loc 1 18 0
  54 0044 C301     		se_lwz %r0,12(%r1)
  55 0046 0090     		se_mtlr %r0
  56              		.cfi_restore 65
  57 0048 2071     		se_addi %r1,8
GAS LISTING C:\Users\ASE-Lab\AppData\Local\Temp\ccMRiF6v.s 			page 2


  58              	.LCFI1:
  59              		.cfi_def_cfa_offset 0
  60 004a 0004     		se_blr
  61              		.cfi_endproc
  62              	.LFE4:
  63              		.size	ADC0_Init, .-ADC0_Init
  64              		.section	.text.ADC1_Init,"axv",@progbits
  65              		.align 1
  66              		.p2align 4,,15
  67              		.globl ADC1_Init
  68              		.type	ADC1_Init, @function
  69              	ADC1_Init:
  70              	.LFB5:
  71              		.loc 1 25 0
  72              		.cfi_startproc
  73 0000 182106F8 		e_stwu %r1,-8(%r1)
  74              	.LCFI2:
  75              		.cfi_def_cfa_offset 8
  76 0004 0080     		se_mflr %r0
  77              		.loc 1 27 0
  78 0006 4914     		se_li %r4,17
  79              		.loc 1 25 0
  80 0008 D301     		se_stw %r0,12(%r1)
  81              		.cfi_offset 65, 4
  82              		.loc 1 27 0
  83 000a 4A13     		se_li %r3,33
  84 000c 78000001 		e_bl SPCSetPeripheralClockMode
  85              	.LVL1:
  86              		.loc 1 31 0
  87 0010 4816     		se_li %r6,1
  88              		.loc 1 29 0
  89 0012 70FFE7E0 		e_lis %r7,0xffe0
  90 0016 4804     		se_li %r4,0
  91 0018 6517     		se_bseti %r7,17
  92 001a C057     		se_lwz %r5,0(%r7)
  93 001c 748507FE 		e_rlwimi %r5,%r4,0,31,31
  94 0020 D057     		se_stw %r5,0(%r7)
  95              		.loc 1 31 0
  96 0022 C057     		se_lwz %r5,0(%r7)
  97 0024 74C5E884 		e_rlwimi %r5,%r6,29,2,2
  98 0028 D057     		se_stw %r5,0(%r7)
  99              		.loc 1 33 0
 100 002a C057     		se_lwz %r5,0(%r7)
 101 002c 74C5F800 		e_rlwimi %r5,%r6,31,0,0
 102 0030 D057     		se_stw %r5,0(%r7)
 103              		.loc 1 35 0
 104 0032 50A700A4 		e_lwz %r5,164(%r7)
 105 0036 74C51F38 		e_rlwimi %r5,%r6,3,28,28
 106 003a 54A700A4 		e_stw %r5,164(%r7)
 107              		.loc 1 37 0
 108 003e C057     		se_lwz %r5,0(%r7)
 109 0040 74C5C1CE 		e_rlwimi %r5,%r6,24,7,7
 110 0044 D057     		se_stw %r5,0(%r7)
 111              		.loc 1 39 0
 112 0046 C301     		se_lwz %r0,12(%r1)
 113 0048 0090     		se_mtlr %r0
 114              		.cfi_restore 65
GAS LISTING C:\Users\ASE-Lab\AppData\Local\Temp\ccMRiF6v.s 			page 3


 115 004a 2071     		se_addi %r1,8
 116              	.LCFI3:
 117              		.cfi_def_cfa_offset 0
 118 004c 0004     		se_blr
 119              		.cfi_endproc
 120              	.LFE5:
 121              		.size	ADC1_Init, .-ADC1_Init
 122              		.section	.text.showData,"axv",@progbits
 123              		.align 1
 124              		.p2align 4,,15
 125              		.globl showData
 126              		.type	showData, @function
 127              	showData:
 128              	.LFB6:
 129              		.loc 1 46 0
 130              		.cfi_startproc
 131              	.LVL2:
 132              		.loc 1 48 0
 133 0000 70039900 		e_cmp16i %r3,256
 134 0004 7A01004E 		e_ble %cr0,.L9
 135              		.loc 1 58 0
 136 0008 18E385FE 		e_addi %r7,%r3,-257
 137 000c 7007A8FF 		e_cmpl16i %r7,255
 138 0010 7A010028 		e_ble %cr0,.L10
 139              		.loc 1 72 0
 140 0014 70F8E3F9 		e_lis %r7,0xc3f9
 141 0018 4816     		se_li %r6,1
 142              		.loc 1 68 0
 143 001a 186385FD 		e_addi %r3,%r3,-513
 144              	.LVL3:
 145              		.loc 1 72 0
 146 001e 34C70625 		e_stb %r6,1573(%r7)
 147              		.loc 1 68 0
 148 0022 7003A8FF 		e_cmpl16i %r3,255
 149              		.loc 1 73 0
 150 0026 34C70606 		e_stb %r6,1542(%r7)
 151              		.loc 1 74 0
 152 002a 34C70627 		e_stb %r6,1575(%r7)
 153              		.loc 1 68 0
 154 002e 7A01003E 		e_ble %cr0,.L11
 155              		.loc 1 85 0
 156 0032 34C70609 		e_stb %r6,1545(%r7)
 157 0036 0004     		se_blr
 158              	.LVL4:
 159              	.L10:
 160              		.loc 1 62 0
 161 0038 70F8E3F9 		e_lis %r7,0xc3f9
 162 003c 4815     		se_li %r5,1
 163              		.loc 1 64 0
 164 003e 4806     		se_li %r6,0
 165              		.loc 1 62 0
 166 0040 34A70625 		e_stb %r5,1573(%r7)
 167              		.loc 1 63 0
 168 0044 34A70606 		e_stb %r5,1542(%r7)
 169              		.loc 1 64 0
 170 0048 34C70627 		e_stb %r6,1575(%r7)
 171              		.loc 1 65 0
GAS LISTING C:\Users\ASE-Lab\AppData\Local\Temp\ccMRiF6v.s 			page 4


 172 004c 34C70609 		e_stb %r6,1545(%r7)
 173 0050 0004     		se_blr
 174              	.L9:
 175              		.loc 1 52 0
 176 0052 70F8E3F9 		e_lis %r7,0xc3f9
 177              		.loc 1 53 0
 178 0056 4806     		se_li %r6,0
 179              		.loc 1 52 0
 180 0058 4815     		se_li %r5,1
 181 005a 34A70625 		e_stb %r5,1573(%r7)
 182              		.loc 1 53 0
 183 005e 34C70606 		e_stb %r6,1542(%r7)
 184              		.loc 1 54 0
 185 0062 34C70627 		e_stb %r6,1575(%r7)
 186              		.loc 1 55 0
 187 0066 34C70609 		e_stb %r6,1545(%r7)
 188 006a 0004     		se_blr
 189              	.LVL5:
 190              	.L11:
 191              		.loc 1 75 0
 192 006c 4806     		se_li %r6,0
 193 006e 34C70609 		e_stb %r6,1545(%r7)
 194 0072 0004     		se_blr
 195              		.cfi_endproc
 196              	.LFE6:
 197              		.size	showData, .-showData
 198              		.section	".text","axv"
 199              	.Letext0:
 200              		.file 2 "c:\\spc5studio\\eclipse\\plugins\\com.st.tools.spc5.tools.gnu.gcc.ppcvle.win32_4.9.4.2018
 201              		.file 3 "c:\\spc5studio\\eclipse\\plugins\\com.st.tools.spc5.tools.gnu.gcc.ppcvle.win32_4.9.4.2018
 202              		.file 4 "./components/spc56elxx_platform_component_rla/lib/include/typedefs.h"
 203              		.file 5 "./components/spc56elxx_platform_component_rla/lib/include/xpc56el.h"
 204              		.file 6 "./components/spc56elxx_clock_component_rla/lib/include/clock.h"