GAS LISTING C:\Users\ASE-Lab\AppData\Local\Temp\ccoTUcvQ.s 			page 1


   1              		.file	"main.c"
   2              		.section	".text","axv"
   3              	.Ltext0:
   4              		.cfi_sections	.debug_frame
   5              		.section	.text.carspeed,"axv",@progbits
   6              		.align 1
   7              		.p2align 4,,15
   8              		.globl carspeed
   9              		.type	carspeed, @function
  10              	carspeed:
  11              	.LFB4:
  12              		.file 1 "main.c"
  13              		.loc 1 21 0
  14              		.cfi_startproc
  15              		.loc 1 23 0
  16 0000 70A0E000 		e_lis %r5,.LANCHOR0@ha
  17 0004 58E50000 		e_lhz %r7,.LANCHOR0@l(%r5)
  18 0008 6707     		se_btsti %r7,16
  19 000a 7A020024 		e_bne %cr0,.L2
  20              		.loc 1 23 0 is_stmt 0 discriminator 1
  21 000e 7080E000 		e_lis %r4,.LANCHOR1@ha
  22 0012 50C40000 		e_lwz %r6,.LANCHOR1@l(%r4)
  23 0016 2A06     		se_cmpi %r6,0
  24 0018 7A02001E 		e_bne %cr0,.L3
  25              		.loc 1 25 0 is_stmt 1
  26 001c 2047     		se_addi %r7,5
  27 001e 00F7     		se_extsh %r7
  28 0020 5CE50000 		e_sth %r7,.LANCHOR0@l(%r5)
  29              		.loc 1 26 0
  30 0024 7007992C 		e_cmp16i %r7,300
  31 0028 7A120032 		e_beq %cr0,.L8
  32              	.L1:
  33 002c 0004     		se_blr
  34              	.L2:
  35 002e 70C0E000 		e_lis %r6,.LANCHOR1@ha
  36 0032 50C60000 		e_lwz %r6,.LANCHOR1@l(%r6)
  37              	.L3:
  38              		.loc 1 32 0
  39 0036 2A16     		se_cmpi %r6,1
  40 0038 7A02FFF4 		e_bne %cr0,.L1
  41              		.loc 1 34 0
  42 003c 18E784FB 		e_addi %r7,%r7,-5
  43 0040 70C0E000 		e_lis %r6,.LANCHOR0@ha
  44 0044 00F7     		se_extsh %r7
  45 0046 5CE60000 		e_sth %r7,.LANCHOR0@l(%r6)
  46              		.loc 1 35 0
  47 004a 2A07     		se_cmpi %r7,0
  48 004c 7A02FFE0 		e_bne %cr0,.L1
  49              		.loc 1 38 0
  50 0050 70C0E000 		e_lis %r6,.LANCHOR1@ha
  51 0054 54E60000 		e_stw %r7,.LANCHOR1@l(%r6)
  52 0058 0004     		se_blr
  53              	.L8:
  54              		.loc 1 29 0
  55 005a 4817     		se_li %r7,1
  56 005c 54E40000 		e_stw %r7,.LANCHOR1@l(%r4)
  57 0060 0004     		se_blr
GAS LISTING C:\Users\ASE-Lab\AppData\Local\Temp\ccoTUcvQ.s 			page 2


  58              		.cfi_endproc
  59              	.LFE4:
  60              		.size	carspeed, .-carspeed
  61              		.globl __eabi
  62              		.section	.text.startup.main,"axv",@progbits
  63              		.align 1
  64              		.p2align 4,,15
  65              		.globl main
  66              		.type	main, @function
  67              	main:
  68              	.LFB5:
  69              		.loc 1 44 0
  70              		.cfi_startproc
  71 0000 182106F0 		e_stwu %r1,-16(%r1)
  72              	.LCFI0:
  73              		.cfi_def_cfa_offset 16
  74 0004 0080     		se_mflr %r0
  75 0006 D3F1     		se_stw %r31,12(%r1)
  76 0008 D501     		se_stw %r0,20(%r1)
  77              		.cfi_offset 65, 4
  78              		.cfi_offset 31, -4
  79              		.loc 1 66 0
  80 000a 73E000FA 		e_li %r31,250
  81              		.loc 1 44 0
  82 000e 78000001 		e_bl __eabi
  83              	.LVL0:
  84              		.loc 1 47 0
  85 0012 78000001 		e_bl ME_Init
  86              	.LVL1:
  87              		.loc 1 48 0
  88 0016 4813     		se_li %r3,1
  89 0018 708000C8 		e_li %r4,200
  90 001c 78000001 		e_bl PIT_ConfigureTimer
  91              	.LVL2:
  92              	.L10:
  93              		.loc 1 66 0 discriminator 1
  94 0020 01F3     		se_mr %r3,%r31
  95 0022 78000001 		e_bl osalThreadDelayMilliseconds
  96              	.LVL3:
  97              		.loc 1 67 0 discriminator 1
  98 0026 79FFFFFA 		e_b .L10
  99              		.cfi_endproc
 100              	.LFE5:
 101              		.size	main, .-main
 102              		.section	.text.can_receive,"axv",@progbits
 103              		.align 1
 104              		.p2align 4,,15
 105              		.globl can_receive
 106              		.type	can_receive, @function
 107              	can_receive:
 108              	.LFB6:
 109              		.loc 1 75 0
 110              		.cfi_startproc
 111              		.loc 1 76 0
 112 0000 70C06000 		e_li %r6,-262144
 113 0004 CC76     		se_lwz %r7,48(%r6)
 114 0006 67A7     		se_btsti %r7,26
GAS LISTING C:\Users\ASE-Lab\AppData\Local\Temp\ccoTUcvQ.s 			page 3


 115 0008 7A020006 		e_bne %cr0,.L15
 116              	.L11:
 117 000c 0004     		se_blr
 118              	.L15:
 119              		.loc 1 78 0
 120 000e 50E60084 		e_lwz %r7,132(%r6)
 121 0012 74E7757F 		e_rlwinm %r7,%r7,14,21,31
 122 0016 2207     		se_cmpli %r7,1
 123 0018 7A12001E 		e_beq %cr0,.L13
 124 001c 7007A8FF 		e_cmpl16i %r7,255
 125 0020 7A02FFEC 		e_bne %cr0,.L11
 126              		.loc 1 82 0
 127 0024 70D8E3F9 		e_lis %r6,0xc3f9
 128 0028 30E60606 		e_lbz %r7,1542(%r6)
 129 002c 0027     		se_not %r7
 130 002e 00C7     		se_extzb %r7
 131 0030 34E60606 		e_stb %r7,1542(%r6)
 132              		.loc 1 83 0
 133 0034 0004     		se_blr
 134              	.L13:
 135              		.loc 1 87 0
 136 0036 4806     		se_li %r6,0
 137 0038 70F8E3F9 		e_lis %r7,0xc3f9
 138              		.loc 1 88 0
 139 003c 4813     		se_li %r3,1
 140              		.loc 1 87 0
 141 003e 34C70607 		e_stb %r6,1543(%r7)
 142              		.loc 1 94 0
 143              		.loc 1 88 0
 144 0042 78000000 		e_b PIT_StartTimer
 145              	.LVL4:
 146              		.cfi_endproc
 147              	.LFE6:
 148              		.size	can_receive, .-can_receive
 149              		.section	.text.Toggle,"axv",@progbits
 150              		.align 1
 151              		.p2align 4,,15
 152              		.globl Toggle
 153              		.type	Toggle, @function
 154              	Toggle:
 155              	.LFB7:
 156              		.loc 1 110 0
 157              		.cfi_startproc
 158 0000 182106F8 		e_stwu %r1,-8(%r1)
 159              	.LCFI1:
 160              		.cfi_def_cfa_offset 8
 161              		.loc 1 114 0
 162 0004 70C06000 		e_li %r6,-262144
 163              		.loc 1 110 0
 164 0008 0080     		se_mflr %r0
 165              		.loc 1 111 0
 166 000a 7098E3F9 		e_lis %r4,0xc3f9
 167              		.loc 1 110 0
 168 000e D301     		se_stw %r0,12(%r1)
 169              		.cfi_offset 65, 4
 170              		.loc 1 113 0
 171 0010 70A0E000 		e_lis %r5,.LANCHOR0@ha
GAS LISTING C:\Users\ASE-Lab\AppData\Local\Temp\ccoTUcvQ.s 			page 4


 172              		.loc 1 111 0
 173 0014 30E40606 		e_lbz %r7,1542(%r4)
 174              		.loc 1 113 0
 175 0018 1C650000 		e_la %r3,.LANCHOR0@l(%r5)
 176              		.loc 1 111 0
 177 001c 0027     		se_not %r7
 178              		.loc 1 113 0
 179 001e 8133     		se_lbz %r3,1(%r3)
 180              		.loc 1 111 0
 181 0020 00C7     		se_extzb %r7
 182 0022 34E40606 		e_stb %r7,1542(%r4)
 183              		.loc 1 113 0
 184 0026 30E50000 		e_lbz %r7,.LANCHOR0@l(%r5)
 185              	.LVL5:
 186              		.loc 1 114 0
 187 002a 34660108 		e_stb %r3,264(%r6)
 188              	.LVL6:
 189              		.loc 1 117 0
 190 002e 48C5     		se_li %r5,12
 191              	.LVL7:
 192              		.loc 1 115 0
 193 0030 34E60109 		e_stb %r7,265(%r6)
 194              		.loc 1 117 0
 195 0034 50E60100 		e_lwz %r7,256(%r6)
 196              	.LVL8:
 197 0038 74A7C10E 		e_rlwimi %r7,%r5,24,4,7
 198 003c 54E60100 		e_stw %r7,256(%r6)
 199              	.LVL9:
 200              		.loc 1 118 0
 201 0040 78000001 		e_bl carspeed
 202              	.LVL10:
 203              		.loc 1 119 0
 204 0044 70F8E3FF 		e_lis %r7,0xc3ff
 205 0048 4815     		se_li %r5,1
 206 004a 50C7011C 		e_lwz %r6,284(%r7)
 207 004e 74A607FE 		e_rlwimi %r6,%r5,0,31,31
 208 0052 54C7011C 		e_stw %r6,284(%r7)
 209              		.loc 1 120 0
 210 0056 C301     		se_lwz %r0,12(%r1)
 211 0058 0090     		se_mtlr %r0
 212              		.cfi_restore 65
 213 005a 2071     		se_addi %r1,8
 214              	.LCFI2:
 215              		.cfi_def_cfa_offset 0
 216 005c 0004     		se_blr
 217              		.cfi_endproc
 218              	.LFE7:
 219              		.size	Toggle, .-Toggle
 220              		.section	.text.vector70,"axv",@progbits
 221              		.align 1
 222              		.p2align 4,,15
 223              		.globl vector70
 224              		.type	vector70, @function
 225              	vector70:
 226              	.LFB8:
 227              		.loc 1 125 0
 228              		.cfi_startproc
GAS LISTING C:\Users\ASE-Lab\AppData\Local\Temp\ccoTUcvQ.s 			page 5


 229              		.loc 1 126 0
 230 0000 70E06000 		e_li %r7,-262144
 231 0004 4815     		se_li %r5,1
 232 0006 CC67     		se_lwz %r6,48(%r7)
 233 0008 74A645EE 		e_rlwimi %r6,%r5,8,23,23
 234 000c DC67     		se_stw %r6,48(%r7)
 235 000e 0004     		se_blr
 236              		.cfi_endproc
 237              	.LFE8:
 238              		.size	vector70, .-vector70
 239              		.globl abc
 240              		.globl incdec
 241              		.globl speed
 242              		.section	.bss.incdec,"aw",@nobits
 243              		.align 2
 244              		.set	.LANCHOR1,. + 0
 245              		.type	incdec, @object
 246              		.size	incdec, 4
 247              	incdec:
 248 0000 00000000 		.zero	4
 249              		.section	.bss.abc,"aw",@nobits
 250              		.align 2
 251              		.type	abc, @object
 252              		.size	abc, 4
 253              	abc:
 254 0000 00000000 		.zero	4
 255              		.section	.bss.speed,"aw",@nobits
 256              		.align 1
 257              		.set	.LANCHOR0,. + 0
 258              		.type	speed, @object
 259              		.size	speed, 2
 260              	speed:
 261 0000 0000     		.zero	2
 262              		.section	".text","axv"
 263              	.Letext0:
 264              		.file 2 "c:\\spc5studio\\eclipse\\plugins\\com.st.tools.spc5.tools.gnu.gcc.ppcvle.win32_4.9.4.2018
 265              		.file 3 "c:\\spc5studio\\eclipse\\plugins\\com.st.tools.spc5.tools.gnu.gcc.ppcvle.win32_4.9.4.2018
 266              		.file 4 "./components/spc56elxx_platform_component_rla/lib/include/typedefs.h"
 267              		.file 5 "./components/spc56elxx_platform_component_rla/lib/include/xpc56el.h"
 268              		.file 6 "./source/pit.h"
 269              		.file 7 "./components/spc56elxx_osal_component_rla/lib/include/osal.h"
 270              		.file 8 "./source/me_init.h"